target datalayout = "e-m:e-p270:32:32-p271:32:32-p272:64:64-i64:64-i128:128-f80:128-n8:16:32:64-S128"
target triple = "x86_64-pc-linux-gnu"

%struct.PNGDSPContext = type { ptr, ptr }
%struct.AVRational = type { i32, i32 }
%struct.AVChannelLayout = type { i32, i32, %union.anon.0, ptr }
%union.anon.0 = type { i64 }
%struct.PNGDecContext = type { %struct.PNGDSPContext, ptr, %struct.GetByteContext, %struct.ProgressFrame, %struct.ProgressFrame, ptr, [82 x i8], ptr, i64, i32, i32, [2 x i32], [3 x [2 x i32]], i32, i32, i32, i32, i32, i32, i32, i32, i32, i32, [3 x [2 x i16]], [2 x i16], i32, i32, i32, i32, i32, i32, i32, i32, i32, i32, i8, i8, i32, i32, i32, i32, i32, i32, i32, i32, i32, [6 x i8], i32, [256 x i32], ptr, ptr, i32, ptr, i32, ptr, i32, i32, i32, i32, i32, i32, %struct.FFZStream }
%struct.GetByteContext = type { ptr, ptr, ptr }
%struct.ProgressFrame = type { ptr, ptr }
%struct.FFZStream = type { %struct.z_stream_s, i32 }
%struct.z_stream_s = type { ptr, i32, i64, ptr, i32, i64, ptr, ptr, ptr, ptr, ptr, i32, i64, i64 }
%struct.AVFrame = type { [8 x ptr], [8 x i32], ptr, i32, i32, i32, i32, i32, %struct.AVRational, i64, i64, %struct.AVRational, i32, ptr, i32, i32, [8 x ptr], ptr, i32, ptr, i32, i32, i32, i32, i32, i32, i32, i64, ptr, i32, ptr, ptr, i64, i64, i64, i64, ptr, %struct.AVChannelLayout, i64 }

; Function Attrs: nounwind uwtable
define internal void @handle_p_frame_png(ptr noundef %0, ptr noundef %1) #0 {
  %3 = alloca ptr, align 8
  %4 = alloca ptr, align 8
  %5 = alloca i32, align 4
  %6 = alloca i32, align 4
  %7 = alloca ptr, align 8
  %8 = alloca ptr, align 8
  %9 = alloca i32, align 4
  store ptr %0, ptr %3, align 8, !tbaa !53
  store ptr %1, ptr %4, align 8, !tbaa !78
  call void @llvm.lifetime.start.p0(i64 4, ptr %5) #13
  call void @llvm.lifetime.start.p0(i64 4, ptr %6) #13
  call void @llvm.lifetime.start.p0(i64 8, ptr %7) #13
  %10 = load ptr, ptr %4, align 8, !tbaa !78
  %11 = getelementptr inbounds nuw %struct.AVFrame, ptr %10, i32 0, i32 0
  %12 = getelementptr inbounds [8 x ptr], ptr %11, i64 0, i64 0
  %13 = load ptr, ptr %12, align 8, !tbaa !4
  store ptr %13, ptr %7, align 8, !tbaa !4
  call void @llvm.lifetime.start.p0(i64 8, ptr %8) #13
  %14 = load ptr, ptr %3, align 8, !tbaa !53
  %15 = getelementptr inbounds nuw %struct.PNGDecContext, ptr %14, i32 0, i32 3
  %16 = getelementptr inbounds nuw %struct.ProgressFrame, ptr %15, i32 0, i32 0
  %17 = load ptr, ptr %16, align 8, !tbaa !135
  %18 = getelementptr inbounds nuw %struct.AVFrame, ptr %17, i32 0, i32 0
  %19 = getelementptr inbounds [8 x ptr], ptr %18, i64 0, i64 0
  %20 = load ptr, ptr %19, align 8, !tbaa !4
  store ptr %20, ptr %8, align 8, !tbaa !4
  call void @llvm.lifetime.start.p0(i64 4, ptr %9) #13
  %21 = load ptr, ptr %4, align 8, !tbaa !78
  %22 = getelementptr inbounds nuw %struct.AVFrame, ptr %21, i32 0, i32 6
  %23 = load i32, ptr %22, align 4, !tbaa !143
  %24 = load ptr, ptr %3, align 8, !tbaa !53
  %25 = getelementptr inbounds nuw %struct.PNGDecContext, ptr %24, i32 0, i32 29
  %26 = load i32, ptr %25, align 8, !tbaa !56
  %27 = call i32 @av_image_get_linesize(i32 noundef %23, i32 noundef %26, i32 noundef 0)
  store i32 %27, ptr %9, align 4, !tbaa !9
  %28 = load i32, ptr %9, align 4, !tbaa !9
  %29 = load ptr, ptr %3, align 8, !tbaa !53
  %30 = getelementptr inbounds nuw %struct.PNGDecContext, ptr %29, i32 0, i32 29
  %31 = load i32, ptr %30, align 8, !tbaa !56
  %32 = load ptr, ptr %3, align 8, !tbaa !53
  %33 = getelementptr inbounds nuw %struct.PNGDecContext, ptr %32, i32 0, i32 44
  %34 = load i32, ptr %33, align 8, !tbaa !130
  %35 = mul nsw i32 %31, %34
  %36 = icmp sgt i32 %28, %35
  br i1 %36, label %37, label %45

37:                                               ; preds = %2
  %38 = load ptr, ptr %3, align 8, !tbaa !53
  %39 = getelementptr inbounds nuw %struct.PNGDecContext, ptr %38, i32 0, i32 29
  %40 = load i32, ptr %39, align 8, !tbaa !56
  %41 = load ptr, ptr %3, align 8, !tbaa !53
  %42 = getelementptr inbounds nuw %struct.PNGDecContext, ptr %41, i32 0, i32 44
  %43 = load i32, ptr %42, align 8, !tbaa !130
  %44 = mul nsw i32 %40, %43
  br label %47

45:                                               ; preds = %2
  %46 = load i32, ptr %9, align 4, !tbaa !9
  br label %47

47:                                               ; preds = %45, %37
  %48 = phi i32 [ %44, %37 ], [ %46, %45 ]
  store i32 %48, ptr %9, align 4, !tbaa !9
  %49 = load ptr, ptr %3, align 8, !tbaa !53
  %50 = getelementptr inbounds nuw %struct.PNGDecContext, ptr %49, i32 0, i32 3
  call void @ff_progress_frame_await(ptr noundef %50, i32 noundef 2147483647)
  store i32 0, ptr %6, align 4, !tbaa !9
  br label %51

51:                                               ; preds = %98, %47
  %52 = load i32, ptr %6, align 4, !tbaa !9
  %53 = load ptr, ptr %3, align 8, !tbaa !53
  %54 = getelementptr inbounds nuw %struct.PNGDecContext, ptr %53, i32 0, i32 30
  %55 = load i32, ptr %54, align 4, !tbaa !66
  %56 = icmp slt i32 %52, %55
  br i1 %56, label %57, label %101

57:                                               ; preds = %51
  store i32 0, ptr %5, align 4, !tbaa !9
  br label %58

58:                                               ; preds = %77, %57
  %59 = load i32, ptr %5, align 4, !tbaa !9
  %60 = load i32, ptr %9, align 4, !tbaa !9
  %61 = icmp slt i32 %59, %60
  br i1 %61, label %62, label %80

62:                                               ; preds = %58
  %63 = load ptr, ptr %8, align 8, !tbaa !4
  %64 = load i32, ptr %5, align 4, !tbaa !9
  %65 = sext i32 %64 to i64
  %66 = getelementptr inbounds i8, ptr %63, i64 %65
  %67 = load i8, ptr %66, align 1, !tbaa !11
  %68 = zext i8 %67 to i32
  %69 = load ptr, ptr %7, align 8, !tbaa !4
  %70 = load i32, ptr %5, align 4, !tbaa !9
  %71 = sext i32 %70 to i64
  %72 = getelementptr inbounds i8, ptr %69, i64 %71
  %73 = load i8, ptr %72, align 1, !tbaa !11
  %74 = zext i8 %73 to i32
  %75 = add nsw i32 %74, %68
  %76 = trunc i32 %75 to i8
  store i8 %76, ptr %72, align 1, !tbaa !11
  br label %77

77:                                               ; preds = %62
  %78 = load i32, ptr %5, align 4, !tbaa !9
  %79 = add nsw i32 %78, 1
  store i32 %79, ptr %5, align 4, !tbaa !9
  br label %58, !llvm.loop !195

80:                                               ; preds = %58
  %81 = load ptr, ptr %4, align 8, !tbaa !78
  %82 = getelementptr inbounds nuw %struct.AVFrame, ptr %81, i32 0, i32 1
  %83 = getelementptr inbounds [8 x i32], ptr %82, i64 0, i64 0
  %84 = load i32, ptr %83, align 8, !tbaa !9
  %85 = load ptr, ptr %7, align 8, !tbaa !4
  %86 = sext i32 %84 to i64
  %87 = getelementptr inbounds i8, ptr %85, i64 %86
  store ptr %87, ptr %7, align 8, !tbaa !4
  %88 = load ptr, ptr %3, align 8, !tbaa !53
  %89 = getelementptr inbounds nuw %struct.PNGDecContext, ptr %88, i32 0, i32 3
  %90 = getelementptr inbounds nuw %struct.ProgressFrame, ptr %89, i32 0, i32 0
  %91 = load ptr, ptr %90, align 8, !tbaa !135
  %92 = getelementptr inbounds nuw %struct.AVFrame, ptr %91, i32 0, i32 1
  %93 = getelementptr inbounds [8 x i32], ptr %92, i64 0, i64 0
  %94 = load i32, ptr %93, align 8, !tbaa !9
  %95 = load ptr, ptr %8, align 8, !tbaa !4
  %96 = sext i32 %94 to i64
  %97 = getelementptr inbounds i8, ptr %95, i64 %96
  store ptr %97, ptr %8, align 8, !tbaa !4
  br label %98

98:                                               ; preds = %80
  %99 = load i32, ptr %6, align 4, !tbaa !9
  %100 = add nsw i32 %99, 1
  store i32 %100, ptr %6, align 4, !tbaa !9
  br label %51, !llvm.loop !196

101:                                              ; preds = %51
  call void @llvm.lifetime.end.p0(i64 4, ptr %9) #13
  call void @llvm.lifetime.end.p0(i64 8, ptr %8) #13
  call void @llvm.lifetime.end.p0(i64 8, ptr %7) #13
  call void @llvm.lifetime.end.p0(i64 4, ptr %6) #13
  call void @llvm.lifetime.end.p0(i64 4, ptr %5) #13
  ret void
}