; Function Attrs: nounwind uwtable
define internal fastcc void @handle_p_frame_png(ptr noundef %0, ptr noundef nonnull readonly captures(none) %1) unnamed_addr #3 {
  %3 = load ptr, ptr %1, align 8, !tbaa !99
  %4 = getelementptr inbounds nuw i8, ptr %0, i64 48
  %5 = load ptr, ptr %4, align 8, !tbaa !110
  %6 = load ptr, ptr %5, align 8, !tbaa !99
  %7 = getelementptr inbounds nuw i8, ptr %1, i64 116
  %8 = load i32, ptr %7, align 4, !tbaa !210
  %9 = getelementptr inbounds nuw i8, ptr %0, i64 304
  %10 = load i32, ptr %9, align 8, !tbaa !48
  %11 = tail call i32 @av_image_get_linesize(i32 noundef %8, i32 noundef %10, i32 noundef 0) #13
  %12 = load i32, ptr %9, align 8, !tbaa !48
  %13 = getelementptr inbounds nuw i8, ptr %0, i64 360
  %14 = load i32, ptr %13, align 8, !tbaa !117
  %15 = mul i32 %14, %12
  %. = tail call i32 @llvm.smin.i32(i32 %11, i32 %15)
  tail call void @ff_progress_frame_await(ptr noundef nonnull %4, i32 noundef 2147483647) #13
  %16 = getelementptr inbounds nuw i8, ptr %0, i64 308
  %17 = load i32, ptr %16, align 4, !tbaa !59
  %18 = icmp sgt i32 %17, 0
  br i1 %18, label %.preheader.lr.ph, label %._crit_edge33

.preheader.lr.ph:                                 ; preds = %2
  %19 = icmp sgt i32 %., 0
  %20 = getelementptr inbounds nuw i8, ptr %1, i64 64
  br i1 %19, label %.preheader.us.preheader, label %._crit_edge33

.preheader.us.preheader:                          ; preds = %.preheader.lr.ph
  %wide.trip.count = zext nneg i32 %. to i64
  br label %.preheader.us

.preheader.us:                                    ; preds = %.preheader.us.preheader, %._crit_edge.us
  %.032.us = phi ptr [ %34, %._crit_edge.us ], [ %6, %.preheader.us.preheader ]
  %.02431.us = phi ptr [ %29, %._crit_edge.us ], [ %3, %.preheader.us.preheader ]
  %.02530.us = phi i32 [ %35, %._crit_edge.us ], [ 0, %.preheader.us.preheader ]
  br label %21

21:                                               ; preds = %.preheader.us, %21
  %indvars.iv = phi i64 [ 0, %.preheader.us ], [ %indvars.iv.next, %21 ]
  %22 = getelementptr inbounds nuw i8, ptr %.032.us, i64 %indvars.iv
  %23 = load i8, ptr %22, align 1, !tbaa !4
  %24 = getelementptr inbounds nuw i8, ptr %.02431.us, i64 %indvars.iv
  %25 = load i8, ptr %24, align 1, !tbaa !4
  %26 = add i8 %25, %23
  store i8 %26, ptr %24, align 1, !tbaa !4
  %indvars.iv.next = add nuw nsw i64 %indvars.iv, 1
  %exitcond.not = icmp eq i64 %indvars.iv.next, %wide.trip.count
  br i1 %exitcond.not, label %._crit_edge.us, label %21, !llvm.loop !215

._crit_edge.us:                                   ; preds = %21
  %27 = load i32, ptr %20, align 8, !tbaa !10
  %28 = sext i32 %27 to i64
  %29 = getelementptr inbounds i8, ptr %.02431.us, i64 %28
  %30 = load ptr, ptr %4, align 8, !tbaa !110
  %31 = getelementptr inbounds nuw i8, ptr %30, i64 64
  %32 = load i32, ptr %31, align 8, !tbaa !10
  %33 = sext i32 %32 to i64
  %34 = getelementptr inbounds i8, ptr %.032.us, i64 %33
  %35 = add nuw nsw i32 %.02530.us, 1
  %36 = load i32, ptr %16, align 4, !tbaa !59
  %37 = icmp slt i32 %35, %36
  br i1 %37, label %.preheader.us, label %._crit_edge33, !llvm.loop !216

._crit_edge33:                                    ; preds = %._crit_edge.us, %.preheader.lr.ph, %2
  ret void
}